; Function Attrs: mustprogress uwtable
define hidden void @_ZN7datalog8rule_set8add_ruleEPNS_4ruleE(ptr noundef nonnull align 8 dereferenceable(248) %0, ptr noundef %1) local_unnamed_addr #3 align 2 {
  %3 = alloca %"struct.obj_map<func_decl, ptr_vector<datalog::rule> *>::key_data", align 8
  %4 = alloca ptr, align 8
  %5 = getelementptr inbounds nuw i8, ptr %0, i64 16
  %6 = load ptr, ptr %5, align 8, !tbaa !323
  tail call void @_ZN7datalog12rule_manager7inc_refEPNS_4ruleE(ptr noundef nonnull align 8 dereferenceable(1104) %6, ptr noundef %1)
  %7 = getelementptr inbounds nuw i8, ptr %0, i64 24
  %8 = load ptr, ptr %7, align 8, !tbaa !80
  %9 = icmp eq ptr %8, null
  br i1 %9, label %16, label %10

10:                                               ; preds = %2
  %11 = getelementptr inbounds i8, ptr %8, i64 -4
  %12 = load i32, ptr %11, align 4, !tbaa !83
  %13 = getelementptr inbounds i8, ptr %8, i64 -8
  %14 = load i32, ptr %13, align 4, !tbaa !83
  %15 = icmp eq i32 %12, %14
  br i1 %15, label %16, label %_ZN15ref_vector_coreIN7datalog4ruleE19ref_manager_wrapperIS1_NS0_12rule_managerEEE9push_backEPS1_.exit

16:                                               ; preds = %10, %2
  tail call void @_ZN6vectorIPN7datalog4ruleELb0EjE13expand_vectorEv(ptr noundef nonnull align 8 dereferenceable(8) %7)
  %.pre.i.i = load ptr, ptr %7, align 8, !tbaa !80
  %.phi.trans.insert.i.i = getelementptr inbounds i8, ptr %.pre.i.i, i64 -4
  %.pre2.i.i = load i32, ptr %.phi.trans.insert.i.i, align 4, !tbaa !83
  br label %_ZN15ref_vector_coreIN7datalog4ruleE19ref_manager_wrapperIS1_NS0_12rule_managerEEE9push_backEPS1_.exit

_ZN15ref_vector_coreIN7datalog4ruleE19ref_manager_wrapperIS1_NS0_12rule_managerEEE9push_backEPS1_.exit: ; preds = %10, %16
  %17 = phi i32 [ %.pre2.i.i, %16 ], [ %12, %10 ]
  %18 = phi ptr [ %.pre.i.i, %16 ], [ %8, %10 ]
  %19 = getelementptr inbounds i8, ptr %18, i64 -4
  %20 = zext i32 %17 to i64
  %21 = getelementptr inbounds nuw ptr, ptr %18, i64 %20
  store ptr %1, ptr %21, align 8, !tbaa !84
  %22 = add i32 %17, 1
  store i32 %22, ptr %19, align 4, !tbaa !83
  %23 = getelementptr inbounds nuw i8, ptr %1, i64 40
  %24 = load ptr, ptr %23, align 8, !tbaa !87
  %25 = getelementptr inbounds nuw i8, ptr %24, i64 16
  %26 = load ptr, ptr %25, align 8, !tbaa !95
  %27 = getelementptr inbounds nuw i8, ptr %0, i64 32
  call void @llvm.lifetime.start.p0(i64 8, ptr nonnull %4) #20
  store ptr null, ptr %4, align 8, !tbaa !343
  call void @llvm.lifetime.start.p0(i64 16, ptr nonnull %3) #20
  store ptr %26, ptr %3, align 8, !tbaa !53
  %.sroa.4.0..sroa_idx.i = getelementptr inbounds nuw i8, ptr %3, i64 8
  store ptr null, ptr %.sroa.4.0..sroa_idx.i, align 8, !tbaa !344
  %28 = call noundef zeroext i1 @_ZN14core_hashtableIN7obj_mapI9func_declP10ptr_vectorIN7datalog4ruleEEE13obj_map_entryE8obj_hashINS7_8key_dataEE10default_eqISA_EE24insert_if_not_there_coreEOSA_RPS8_(ptr noundef nonnull align 8 dereferenceable(24) %27, ptr noundef nonnull align 8 dereferenceable(16) %3, ptr noundef nonnull align 8 dereferenceable(8) %4)
  call void @llvm.lifetime.end.p0(i64 16, ptr nonnull %3) #20
  %29 = load ptr, ptr %4, align 8, !tbaa !343
  call void @llvm.lifetime.end.p0(i64 8, ptr nonnull %4) #20
  %30 = getelementptr inbounds nuw i8, ptr %29, i64 8
  %31 = load ptr, ptr %30, align 8, !tbaa !344
  %.not = icmp eq ptr %31, null
  br i1 %.not, label %.thread, label %33

.thread:                                          ; preds = %_ZN15ref_vector_coreIN7datalog4ruleE19ref_manager_wrapperIS1_NS0_12rule_managerEEE9push_backEPS1_.exit
  %32 = call noalias noundef ptr @_ZN6memory8allocateEm(i64 noundef 8)
  store ptr null, ptr %32, align 8, !tbaa !80
  store ptr %32, ptr %30, align 8, !tbaa !344
  br label %41

33:                                               ; preds = %_ZN15ref_vector_coreIN7datalog4ruleE19ref_manager_wrapperIS1_NS0_12rule_managerEEE9push_backEPS1_.exit
  %.pre = load ptr, ptr %31, align 8, !tbaa !80
  %34 = icmp eq ptr %.pre, null
  br i1 %34, label %41, label %35

35:                                               ; preds = %33
  %36 = getelementptr inbounds i8, ptr %.pre, i64 -4
  %37 = load i32, ptr %36, align 4, !tbaa !83
  %38 = getelementptr inbounds i8, ptr %.pre, i64 -8
  %39 = load i32, ptr %38, align 4, !tbaa !83
  %40 = icmp eq i32 %37, %39
  br i1 %40, label %41, label %_ZN6vectorIPN7datalog4ruleELb0EjE9push_backERKS2_.exit

41:                                               ; preds = %.thread, %35, %33
  %42 = phi ptr [ %32, %.thread ], [ %31, %35 ], [ %31, %33 ]
  call void @_ZN6vectorIPN7datalog4ruleELb0EjE13expand_vectorEv(ptr noundef nonnull align 8 dereferenceable(8) %42)
  %.pre.i = load ptr, ptr %42, align 8, !tbaa !80
  %.phi.trans.insert.i = getelementptr inbounds i8, ptr %.pre.i, i64 -4
  %.pre2.i = load i32, ptr %.phi.trans.insert.i, align 4, !tbaa !83
  br label %_ZN6vectorIPN7datalog4ruleELb0EjE9push_backERKS2_.exit

_ZN6vectorIPN7datalog4ruleELb0EjE9push_backERKS2_.exit: ; preds = %35, %41
  %43 = phi i32 [ %.pre2.i, %41 ], [ %37, %35 ]
  %44 = phi ptr [ %.pre.i, %41 ], [ %.pre, %35 ]
  %45 = getelementptr inbounds i8, ptr %44, i64 -4
  %46 = zext i32 %43 to i64
  %47 = getelementptr inbounds nuw ptr, ptr %44, i64 %46
  store ptr %1, ptr %47, align 8, !tbaa !84
  %48 = add i32 %43, 1
  store i32 %48, ptr %45, align 4, !tbaa !83
  ret void
}